; ModuleID = 'source-C-CXX/2/1039.c'
source_filename = "source-C-CXX/2/1039.c"
target datalayout = "e-m:e-p270:32:32-p271:32:32-p272:64:64-i64:64-f80:128-n8:16:32:64-S128"
target triple = "x86_64-pc-linux-gnu"

@.str = private unnamed_addr constant [5 x i8] c"%d%d\00", align 1
@.str.1 = private unnamed_addr constant [3 x i8] c"%d\00", align 1
@.str.2 = private unnamed_addr constant [4 x i8] c"yes\00", align 1
@.str.3 = private unnamed_addr constant [3 x i8] c"no\00", align 1

; Function Attrs: nofree nounwind sspstrong uwtable
define dso_local i32 @main() local_unnamed_addr #0 {
  %1 = alloca i32, align 4
  %2 = alloca i32, align 4
  %3 = alloca [100 x i32], align 16
  %4 = alloca [100 x i32], align 16
  %5 = bitcast i32* %1 to i8*
  call void @llvm.lifetime.start.p0i8(i64 4, i8* nonnull %5) #3
  %6 = bitcast i32* %2 to i8*
  call void @llvm.lifetime.start.p0i8(i64 4, i8* nonnull %6) #3
  %7 = bitcast [100 x i32]* %3 to i8*
  call void @llvm.lifetime.start.p0i8(i64 400, i8* nonnull %7) #3
  %8 = bitcast [100 x i32]* %4 to i8*
  call void @llvm.lifetime.start.p0i8(i64 400, i8* nonnull %8) #3
  %9 = call i32 (i8*, ...) @__isoc99_scanf(i8* getelementptr inbounds ([5 x i8], [5 x i8]* @.str, i64 0, i64 0), i32* nonnull %1, i32* nonnull %2)
  %10 = load i32, i32* %1, align 4, !tbaa !5
  %11 = icmp slt i32 %10, 1
  br i1 %11, label %48, label %18

12:                                               ; preds = %18
  %13 = icmp slt i32 %27, 1
  br i1 %13, label %48, label %14

14:                                               ; preds = %12
  %15 = add nuw i32 %27, 1
  %16 = zext i32 %27 to i64
  %17 = zext i32 %15 to i64
  br label %30

18:                                               ; preds = %0, %18
  %19 = phi i64 [ %26, %18 ], [ 1, %0 ]
  %20 = getelementptr inbounds [100 x i32], [100 x i32]* %3, i64 0, i64 %19
  %21 = call i32 (i8*, ...) @__isoc99_scanf(i8* getelementptr inbounds ([3 x i8], [3 x i8]* @.str.1, i64 0, i64 0), i32* nonnull %20)
  %22 = load i32, i32* %2, align 4, !tbaa !5
  %23 = load i32, i32* %20, align 4, !tbaa !5
  %24 = sub nsw i32 %22, %23
  %25 = getelementptr inbounds [100 x i32], [100 x i32]* %4, i64 0, i64 %19
  store i32 %24, i32* %25, align 4, !tbaa !5
  %26 = add nuw nsw i64 %19, 1
  %27 = load i32, i32* %1, align 4, !tbaa !5
  %28 = sext i32 %27 to i64
  %29 = icmp slt i64 %19, %28
  br i1 %29, label %18, label %12, !llvm.loop !9

30:                                               ; preds = %14, %43
  %31 = phi i64 [ 1, %14 ], [ %44, %43 ]
  %32 = phi i1 [ false, %14 ], [ %45, %43 ]
  %33 = getelementptr inbounds [100 x i32], [100 x i32]* %4, i64 0, i64 %31
  %34 = load i32, i32* %33, align 4, !tbaa !5
  br label %38

35:                                               ; preds = %38
  %36 = add nuw nsw i64 %39, 1
  %37 = icmp eq i64 %36, %17
  br i1 %37, label %43, label %38, !llvm.loop !11

38:                                               ; preds = %30, %35
  %39 = phi i64 [ 1, %30 ], [ %36, %35 ]
  %40 = getelementptr inbounds [100 x i32], [100 x i32]* %3, i64 0, i64 %39
  %41 = load i32, i32* %40, align 4, !tbaa !5
  %42 = icmp eq i32 %34, %41
  br i1 %42, label %47, label %35

43:                                               ; preds = %35
  %44 = add nuw nsw i64 %31, 1
  %45 = icmp uge i64 %31, %16
  %46 = icmp eq i64 %44, %17
  br i1 %46, label %48, label %30, !llvm.loop !12

47:                                               ; preds = %38
  br i1 %32, label %48, label %49

48:                                               ; preds = %43, %0, %12, %47
  br label %49

49:                                               ; preds = %47, %48
  %50 = phi i8* [ getelementptr inbounds ([3 x i8], [3 x i8]* @.str.3, i64 0, i64 0), %48 ], [ getelementptr inbounds ([4 x i8], [4 x i8]* @.str.2, i64 0, i64 0), %47 ]
  %51 = call i32 (i8*, ...) @printf(i8* nonnull dereferenceable(1) %50)
  call void @llvm.lifetime.end.p0i8(i64 400, i8* nonnull %8) #3
  call void @llvm.lifetime.end.p0i8(i64 400, i8* nonnull %7) #3
  call void @llvm.lifetime.end.p0i8(i64 4, i8* nonnull %6) #3
  call void @llvm.lifetime.end.p0i8(i64 4, i8* nonnull %5) #3
  ret i32 0
}

; Function Attrs: argmemonly mustprogress nofree nosync nounwind willreturn
declare void @llvm.lifetime.start.p0i8(i64 immarg, i8* nocapture) #1

; Function Attrs: nofree nounwind
declare noundef i32 @__isoc99_scanf(i8* nocapture noundef readonly, ...) local_unnamed_addr #2

; Function Attrs: nofree nounwind
declare noundef i32 @printf(i8* nocapture noundef readonly, ...) local_unnamed_addr #2

; Function Attrs: argmemonly mustprogress nofree nosync nounwind willreturn
declare void @llvm.lifetime.end.p0i8(i64 immarg, i8* nocapture) #1


!llvm.module.flags = !{!0, !1, !2, !3}
!llvm.ident = !{!4}

!0 = !{i32 1, !"wchar_size", i32 4}
!1 = !{i32 7, !"PIC Level", i32 2}
!2 = !{i32 7, !"PIE Level", i32 2}
!3 = !{i32 7, !"uwtable", i32 1}
!4 = !{!"clang version 13.0.0"}
!5 = !{!6, !6, i64 0}
!6 = !{!"int", !7, i64 0}
!7 = !{!"omnipotent char", !8, i64 0}
!8 = !{!"Simple C/C++ TBAA"}
!9 = distinct !{!9, !10}
!10 = !{!"llvm.loop.mustprogress"}
!11 = distinct !{!11, !10}
!12 = distinct !{!12, !10}
